target datalayout = "e-m:e-p270:32:32-p271:32:32-p272:64:64-i64:64-i128:128-f80:128-n8:16:32:64-S128"
target triple = "x86_64-unknown-linux-gnu"

%"class.icu_75::OlsonTimeZone" = type { %"class.icu_75::BasicTimeZone", i16, i16, i16, ptr, ptr, ptr, i16, ptr, ptr, ptr, double, i32, ptr, ptr, ptr, i16, ptr, ptr, i16, ptr, %"struct.icu_75::UInitOnce" }
%"class.icu_75::BasicTimeZone" = type { %"class.icu_75::TimeZone" }
%"class.icu_75::TimeZone" = type { %"class.icu_75::UObject", %"class.icu_75::UnicodeString" }
%"class.icu_75::UObject" = type { ptr }
%"class.icu_75::UnicodeString" = type { %"class.icu_75::Replaceable", %"union.icu_75::UnicodeString::StackBufferOrFields" }
%"class.icu_75::Replaceable" = type { %"class.icu_75::UObject" }
%"union.icu_75::UnicodeString::StackBufferOrFields" = type { %struct.anon.0, [32 x i8] }
%struct.anon.0 = type { i16, i32, i32, ptr }
%"struct.icu_75::UInitOnce" = type { %"struct.std::atomic", i32 }
%"struct.std::atomic" = type { %"struct.std::__atomic_base" }
%"struct.std::__atomic_base" = type { i32 }

; Function Attrs: mustprogress nounwind uwtable
define internal noundef signext i8 @_ZL9U_FAILURE10UErrorCode(i32 noundef %code) #0 {
entry:
  %code.addr = alloca i32, align 4
  store i32 %code, ptr %code.addr, align 4
  %0 = load i32, ptr %code.addr, align 4
  %cmp = icmp sgt i32 %0, 0
  %conv = zext i1 %cmp to i8
  ret i8 %conv
}

; Function Attrs: mustprogress uwtable
define void @_ZNK6icu_7513OlsonTimeZone9getOffsetEdaRiS1_R10UErrorCode(ptr noundef nonnull align 8 dereferenceable(224) %this, double noundef %date, i8 noundef signext %local, ptr noundef nonnull align 4 dereferenceable(4) %rawoff, ptr noundef nonnull align 4 dereferenceable(4) %dstoff, ptr noundef nonnull align 4 dereferenceable(4) %ec) unnamed_addr #1 align 2 {
entry:
  %this.addr = alloca ptr, align 8
  %date.addr = alloca double, align 8
  %local.addr = alloca i8, align 1
  %rawoff.addr = alloca ptr, align 8
  %dstoff.addr = alloca ptr, align 8
  %ec.addr = alloca ptr, align 8
  store ptr %this, ptr %this.addr, align 8
  store double %date, ptr %date.addr, align 8
  store i8 %local, ptr %local.addr, align 1
  store ptr %rawoff, ptr %rawoff.addr, align 8
  store ptr %dstoff, ptr %dstoff.addr, align 8
  store ptr %ec, ptr %ec.addr, align 8
  %this1 = load ptr, ptr %this.addr, align 8
  %0 = load ptr, ptr %ec.addr, align 8
  %1 = load i32, ptr %0, align 4
  %call = call noundef signext i8 @_ZL9U_FAILURE10UErrorCode(i32 noundef %1)
  %tobool = icmp ne i8 %call, 0
  br i1 %tobool, label %if.then, label %if.end

if.then:                                          ; preds = %entry
  br label %if.end5

if.end:                                           ; preds = %entry
  %finalZone = getelementptr inbounds %"class.icu_75::OlsonTimeZone", ptr %this1, i32 0, i32 10
  %2 = load ptr, ptr %finalZone, align 8
  %cmp = icmp ne ptr %2, null
  br i1 %cmp, label %land.lhs.true, label %if.else

land.lhs.true:                                    ; preds = %if.end
  %3 = load double, ptr %date.addr, align 8
  %finalStartMillis = getelementptr inbounds %"class.icu_75::OlsonTimeZone", ptr %this1, i32 0, i32 11
  %4 = load double, ptr %finalStartMillis, align 8
  %cmp2 = fcmp oge double %3, %4
  br i1 %cmp2, label %if.then3, label %if.else

if.then3:                                         ; preds = %land.lhs.true
  %finalZone4 = getelementptr inbounds %"class.icu_75::OlsonTimeZone", ptr %this1, i32 0, i32 10
  %5 = load ptr, ptr %finalZone4, align 8
  %6 = load double, ptr %date.addr, align 8
  %7 = load i8, ptr %local.addr, align 1
  %8 = load ptr, ptr %rawoff.addr, align 8
  %9 = load ptr, ptr %dstoff.addr, align 8
  %10 = load ptr, ptr %ec.addr, align 8
  %vtable = load ptr, ptr %5, align 8
  %vfn = getelementptr inbounds ptr, ptr %vtable, i64 6
  %11 = load ptr, ptr %vfn, align 8
  call void %11(ptr noundef nonnull align 8 dereferenceable(160) %5, double noundef %6, i8 noundef signext %7, ptr noundef nonnull align 4 dereferenceable(4) %8, ptr noundef nonnull align 4 dereferenceable(4) %9, ptr noundef nonnull align 4 dereferenceable(4) %10)
  br label %if.end5

if.else:                                          ; preds = %land.lhs.true, %if.end
  %12 = load double, ptr %date.addr, align 8
  %13 = load i8, ptr %local.addr, align 1
  %14 = load ptr, ptr %rawoff.addr, align 8
  %15 = load ptr, ptr %dstoff.addr, align 8
  call void @_ZNK6icu_7513OlsonTimeZone19getHistoricalOffsetEdaiiRiS1_(ptr noundef nonnull align 8 dereferenceable(224) %this1, double noundef %12, i8 noundef signext %13, i32 noundef 4, i32 noundef 12, ptr noundef nonnull align 4 dereferenceable(4) %14, ptr noundef nonnull align 4 dereferenceable(4) %15)
  br label %if.end5

if.end5:                                          ; preds = %if.else, %if.then3, %if.then
  ret void
}